target datalayout = "e-m:e-p270:32:32-p271:32:32-p272:64:64-i64:64-i128:128-f80:128-n8:16:32:64-S128"
target triple = "x86_64-unknown-linux-gnu"

%"class.absl::debian2::string_view" = type { ptr, i64 }
%class.anon = type { i8 }

; Function Attrs: mustprogress nounwind uwtable
define linkonce_odr void @_ZZNK4absl7debian211string_viewixEmENKUlvE_clEv(ptr noundef nonnull align 1 dereferenceable(1) %this) #0 comdat align 2 {
entry:
  %this.addr = alloca ptr, align 8
  store ptr %this, ptr %this.addr, align 8
  br label %do.body

do.body:                                          ; preds = %entry
  call void @llvm.trap()
  unreachable

do.end:                                           ; No predecessors!
  ret void
}

; Function Attrs: mustprogress uwtable
define linkonce_odr noundef nonnull align 1 dereferenceable(1) ptr @_ZNK4absl7debian211string_viewixEm(ptr noundef nonnull align 8 dereferenceable(16) %this, i64 noundef %i) #1 comdat align 2 {
entry:
  %this.addr = alloca ptr, align 8
  %i.addr = alloca i64, align 8
  %ref.tmp = alloca %class.anon, align 1
  store ptr %this, ptr %this.addr, align 8
  store i64 %i, ptr %i.addr, align 8
  %this1 = load ptr, ptr %this.addr, align 8
  %0 = load i64, ptr %i.addr, align 8
  %call = call noundef i64 @_ZNK4absl7debian211string_view4sizeEv(ptr noundef nonnull align 8 dereferenceable(16) %this1) #12
  %cmp = icmp ult i64 %0, %call
  br i1 %cmp, label %cond.true, label %cond.false

cond.true:                                        ; preds = %entry
  br label %cond.end

cond.false:                                       ; preds = %entry
  call void @_ZZNK4absl7debian211string_viewixEmENKUlvE_clEv(ptr noundef nonnull align 1 dereferenceable(1) %ref.tmp)
  br label %cond.end

cond.end:                                         ; preds = %cond.false, %cond.true
  %ptr_ = getelementptr inbounds %"class.absl::debian2::string_view", ptr %this1, i32 0, i32 0
  %1 = load ptr, ptr %ptr_, align 8
  %2 = load i64, ptr %i.addr, align 8
  %arrayidx = getelementptr inbounds i8, ptr %1, i64 %2
  ret ptr %arrayidx
}

; Function Attrs: mustprogress nounwind uwtable
define linkonce_odr noundef i64 @_ZNK4absl7debian211string_view4sizeEv(ptr noundef nonnull align 8 dereferenceable(16) %this) #0 comdat align 2 {
entry:
  %this.addr = alloca ptr, align 8
  store ptr %this, ptr %this.addr, align 8
  %this1 = load ptr, ptr %this.addr, align 8
  %length_ = getelementptr inbounds %"class.absl::debian2::string_view", ptr %this1, i32 0, i32 1
  %0 = load i64, ptr %length_, align 8
  ret i64 %0
}

; Function Attrs: mustprogress uwtable
define void @_ZN3re219ConvertLatin1ToUTF8EN4absl7debian211string_viewEPNSt7__cxx1112basic_stringIcSt11char_traitsIcESaIcEEE(ptr %latin1.coerce0, i64 %latin1.coerce1, ptr noundef %utf) #1 {
entry:
  %latin1 = alloca %"class.absl::debian2::string_view", align 8
  %utf.addr = alloca ptr, align 8
  %buf = alloca [4 x i8], align 1
  %i = alloca i64, align 8
  %r = alloca i32, align 4
  %n = alloca i32, align 4
  %0 = getelementptr inbounds { ptr, i64 }, ptr %latin1, i32 0, i32 0
  store ptr %latin1.coerce0, ptr %0, align 8
  %1 = getelementptr inbounds { ptr, i64 }, ptr %latin1, i32 0, i32 1
  store i64 %latin1.coerce1, ptr %1, align 8
  store ptr %utf, ptr %utf.addr, align 8
  %2 = load ptr, ptr %utf.addr, align 8
  call void @_ZNSt7__cxx1112basic_stringIcSt11char_traitsIcESaIcEE5clearEv(ptr noundef nonnull align 8 dereferenceable(32) %2) #12
  store i64 0, ptr %i, align 8
  br label %for.cond

for.cond:                                         ; preds = %for.inc, %entry
  %3 = load i64, ptr %i, align 8
  %call = call noundef i64 @_ZNK4absl7debian211string_view4sizeEv(ptr noundef nonnull align 8 dereferenceable(16) %latin1) #12
  %cmp = icmp ult i64 %3, %call
  br i1 %cmp, label %for.body, label %for.end

for.body:                                         ; preds = %for.cond
  %4 = load i64, ptr %i, align 8
  %call1 = call noundef nonnull align 1 dereferenceable(1) ptr @_ZNK4absl7debian211string_viewixEm(ptr noundef nonnull align 8 dereferenceable(16) %latin1, i64 noundef %4)
  %5 = load i8, ptr %call1, align 1
  %conv = sext i8 %5 to i32
  %and = and i32 %conv, 255
  store i32 %and, ptr %r, align 4
  %arraydecay = getelementptr inbounds [4 x i8], ptr %buf, i64 0, i64 0
  %call2 = call noundef i32 @_ZN3re210runetocharEPcPKi(ptr noundef %arraydecay, ptr noundef %r)
  store i32 %call2, ptr %n, align 4
  %6 = load ptr, ptr %utf.addr, align 8
  %arraydecay3 = getelementptr inbounds [4 x i8], ptr %buf, i64 0, i64 0
  %7 = load i32, ptr %n, align 4
  %conv4 = sext i32 %7 to i64
  %call5 = call noundef nonnull align 8 dereferenceable(32) ptr @_ZNSt7__cxx1112basic_stringIcSt11char_traitsIcESaIcEE6appendEPKcm(ptr noundef nonnull align 8 dereferenceable(32) %6, ptr noundef %arraydecay3, i64 noundef %conv4)
  br label %for.inc

for.inc:                                          ; preds = %for.body
  %8 = load i64, ptr %i, align 8
  %inc = add i64 %8, 1
  store i64 %inc, ptr %i, align 8
  br label %for.cond, !llvm.loop !40

for.end:                                          ; preds = %for.cond
  ret void
}