; Function Attrs: mustprogress uwtable
define void @_ZN3re219ConvertLatin1ToUTF8EN4absl7debian211string_viewEPNSt7__cxx1112basic_stringIcSt11char_traitsIcESaIcEEE(ptr nocapture readonly %latin1.coerce0, i64 %latin1.coerce1, ptr noundef nonnull %utf) local_unnamed_addr #8 {
entry:
  %buf = alloca [4 x i8], align 1
  %r = alloca i32, align 4
  tail call void @_ZNSt7__cxx1112basic_stringIcSt11char_traitsIcESaIcEE5clearEv(ptr noundef nonnull align 8 dereferenceable(32) %utf) #25
  %cmp5.not = icmp eq i64 %latin1.coerce1, 0
  br i1 %cmp5.not, label %for.end, label %_ZNK4absl7debian211string_viewixEm.exit

_ZNK4absl7debian211string_viewixEm.exit:          ; preds = %entry, %_ZNK4absl7debian211string_viewixEm.exit
  %i.06 = phi i64 [ %inc, %_ZNK4absl7debian211string_viewixEm.exit ], [ 0, %entry ]
  %arrayidx.i = getelementptr inbounds i8, ptr %latin1.coerce0, i64 %i.06
  %0 = load i8, ptr %arrayidx.i, align 1
  %conv = zext i8 %0 to i32
  store i32 %conv, ptr %r, align 4
  %call2 = call noundef i32 @_ZN3re210runetocharEPcPKi(ptr noundef nonnull %buf, ptr noundef nonnull %r)
  %conv4 = sext i32 %call2 to i64
  %call5 = call noundef nonnull align 8 dereferenceable(32) ptr @_ZNSt7__cxx1112basic_stringIcSt11char_traitsIcESaIcEE6appendEPKcm(ptr noundef nonnull align 8 dereferenceable(32) %utf, ptr noundef nonnull %buf, i64 noundef %conv4)
  %inc = add nuw i64 %i.06, 1
  %exitcond.not = icmp eq i64 %inc, %latin1.coerce1
  br i1 %exitcond.not, label %for.end, label %_ZNK4absl7debian211string_viewixEm.exit, !llvm.loop !61

for.end:                                          ; preds = %_ZNK4absl7debian211string_viewixEm.exit, %entry
  ret void
}